target datalayout = "e-m:e-p270:32:32-p271:32:32-p272:64:64-i64:64-i128:128-f80:128-n8:16:32:64-S128"
target triple = "x86_64-pc-linux-gnu"

%struct.NODE = type { ptr, ptr, ptr }
%struct.QueryOperator = type { i8, i8, i16, i32 }

; Function Attrs: nounwind uwtable
define internal ptr @clean_NOT_intree(ptr noundef %0) #0 {
  %2 = alloca ptr, align 8
  %3 = alloca ptr, align 8
  %4 = alloca ptr, align 8
  store ptr %0, ptr %3, align 8
  call void @check_stack_depth()
  %5 = load ptr, ptr %3, align 8
  %6 = getelementptr inbounds nuw %struct.NODE, ptr %5, i32 0, i32 2
  %7 = load ptr, ptr %6, align 8
  %8 = load i8, ptr %7, align 4
  %9 = sext i8 %8 to i32
  %10 = icmp eq i32 %9, 1
  br i1 %10, label %11, label %13

11:                                               ; preds = %1
  %12 = load ptr, ptr %3, align 8
  store ptr %12, ptr %2, align 8
  br label %101

13:                                               ; preds = %1
  %14 = load ptr, ptr %3, align 8
  %15 = getelementptr inbounds nuw %struct.NODE, ptr %14, i32 0, i32 2
  %16 = load ptr, ptr %15, align 8
  %17 = getelementptr inbounds nuw %struct.QueryOperator, ptr %16, i32 0, i32 1
  %18 = load i8, ptr %17, align 1
  %19 = sext i8 %18 to i32
  %20 = icmp eq i32 %19, 1
  br i1 %20, label %21, label %23

21:                                               ; preds = %13
  %22 = load ptr, ptr %3, align 8
  call void @freetree(ptr noundef %22)
  store ptr null, ptr %2, align 8
  br label %101

23:                                               ; preds = %13
  %24 = load ptr, ptr %3, align 8
  %25 = getelementptr inbounds nuw %struct.NODE, ptr %24, i32 0, i32 2
  %26 = load ptr, ptr %25, align 8
  %27 = getelementptr inbounds nuw %struct.QueryOperator, ptr %26, i32 0, i32 1
  %28 = load i8, ptr %27, align 1
  %29 = sext i8 %28 to i32
  %30 = icmp eq i32 %29, 3
  br i1 %30, label %31, label %50

31:                                               ; preds = %23
  %32 = load ptr, ptr %3, align 8
  %33 = getelementptr inbounds nuw %struct.NODE, ptr %32, i32 0, i32 0
  %34 = load ptr, ptr %33, align 8
  %35 = call ptr @clean_NOT_intree(ptr noundef %34)
  %36 = load ptr, ptr %3, align 8
  %37 = getelementptr inbounds nuw %struct.NODE, ptr %36, i32 0, i32 0
  store ptr %35, ptr %37, align 8
  %38 = icmp eq ptr %35, null
  br i1 %38, label %47, label %39

39:                                               ; preds = %31
  %40 = load ptr, ptr %3, align 8
  %41 = getelementptr inbounds nuw %struct.NODE, ptr %40, i32 0, i32 1
  %42 = load ptr, ptr %41, align 8
  %43 = call ptr @clean_NOT_intree(ptr noundef %42)
  %44 = load ptr, ptr %3, align 8
  %45 = getelementptr inbounds nuw %struct.NODE, ptr %44, i32 0, i32 1
  store ptr %43, ptr %45, align 8
  %46 = icmp eq ptr %43, null
  br i1 %46, label %47, label %49

47:                                               ; preds = %39, %31
  %48 = load ptr, ptr %3, align 8
  call void @freetree(ptr noundef %48)
  store ptr null, ptr %2, align 8
  br label %101

49:                                               ; preds = %39
  br label %99

50:                                               ; preds = %23
  call void @llvm.lifetime.start.p0(i64 8, ptr %4) #5
  %51 = load ptr, ptr %3, align 8
  store ptr %51, ptr %4, align 8
  %52 = load ptr, ptr %3, align 8
  %53 = getelementptr inbounds nuw %struct.NODE, ptr %52, i32 0, i32 0
  %54 = load ptr, ptr %53, align 8
  %55 = call ptr @clean_NOT_intree(ptr noundef %54)
  %56 = load ptr, ptr %3, align 8
  %57 = getelementptr inbounds nuw %struct.NODE, ptr %56, i32 0, i32 0
  store ptr %55, ptr %57, align 8
  %58 = load ptr, ptr %3, align 8
  %59 = getelementptr inbounds nuw %struct.NODE, ptr %58, i32 0, i32 1
  %60 = load ptr, ptr %59, align 8
  %61 = call ptr @clean_NOT_intree(ptr noundef %60)
  %62 = load ptr, ptr %3, align 8
  %63 = getelementptr inbounds nuw %struct.NODE, ptr %62, i32 0, i32 1
  store ptr %61, ptr %63, align 8
  %64 = load ptr, ptr %3, align 8
  %65 = getelementptr inbounds nuw %struct.NODE, ptr %64, i32 0, i32 0
  %66 = load ptr, ptr %65, align 8
  %67 = icmp eq ptr %66, null
  br i1 %67, label %68, label %75

68:                                               ; preds = %50
  %69 = load ptr, ptr %3, align 8
  %70 = getelementptr inbounds nuw %struct.NODE, ptr %69, i32 0, i32 1
  %71 = load ptr, ptr %70, align 8
  %72 = icmp eq ptr %71, null
  br i1 %72, label %73, label %75

73:                                               ; preds = %68
  %74 = load ptr, ptr %3, align 8
  call void @pfree(ptr noundef %74)
  store ptr null, ptr %4, align 8
  br label %97

75:                                               ; preds = %68, %50
  %76 = load ptr, ptr %3, align 8
  %77 = getelementptr inbounds nuw %struct.NODE, ptr %76, i32 0, i32 0
  %78 = load ptr, ptr %77, align 8
  %79 = icmp eq ptr %78, null
  br i1 %79, label %80, label %85

80:                                               ; preds = %75
  %81 = load ptr, ptr %3, align 8
  %82 = getelementptr inbounds nuw %struct.NODE, ptr %81, i32 0, i32 1
  %83 = load ptr, ptr %82, align 8
  store ptr %83, ptr %4, align 8
  %84 = load ptr, ptr %3, align 8
  call void @pfree(ptr noundef %84)
  br label %96

85:                                               ; preds = %75
  %86 = load ptr, ptr %3, align 8
  %87 = getelementptr inbounds nuw %struct.NODE, ptr %86, i32 0, i32 1
  %88 = load ptr, ptr %87, align 8
  %89 = icmp eq ptr %88, null
  br i1 %89, label %90, label %95

90:                                               ; preds = %85
  %91 = load ptr, ptr %3, align 8
  %92 = getelementptr inbounds nuw %struct.NODE, ptr %91, i32 0, i32 0
  %93 = load ptr, ptr %92, align 8
  store ptr %93, ptr %4, align 8
  %94 = load ptr, ptr %3, align 8
  call void @pfree(ptr noundef %94)
  br label %95

95:                                               ; preds = %90, %85
  br label %96

96:                                               ; preds = %95, %80
  br label %97

97:                                               ; preds = %96, %73
  %98 = load ptr, ptr %4, align 8
  store ptr %98, ptr %2, align 8
  call void @llvm.lifetime.end.p0(i64 8, ptr %4) #5
  br label %101

99:                                               ; preds = %49
  %100 = load ptr, ptr %3, align 8
  store ptr %100, ptr %2, align 8
  br label %101

101:                                              ; preds = %99, %97, %47, %21, %11
  %102 = load ptr, ptr %2, align 8
  ret ptr %102
}