; Function Attrs: nounwind uwtable
define internal fastcc ptr @clean_NOT_intree(ptr noundef %0) unnamed_addr #0 {
  tail call void @check_stack_depth() #7
  %2 = getelementptr inbounds nuw i8, ptr %0, i64 16
  %3 = load ptr, ptr %2, align 8
  %4 = load i8, ptr %3, align 4
  %5 = icmp eq i8 %4, 1
  br i1 %5, label %34, label %6

6:                                                ; preds = %1
  %7 = getelementptr inbounds nuw i8, ptr %3, i64 1
  %8 = load i8, ptr %7, align 1
  switch i8 %8, label %20 [
    i8 1, label %9
    i8 3, label %10
  ]

9:                                                ; preds = %6
  tail call fastcc void @freetree(ptr noundef nonnull %0)
  br label %34

10:                                               ; preds = %6
  %11 = load ptr, ptr %0, align 8
  %12 = tail call fastcc ptr @clean_NOT_intree(ptr noundef %11)
  store ptr %12, ptr %0, align 8
  %13 = icmp eq ptr %12, null
  br i1 %13, label %19, label %14

14:                                               ; preds = %10
  %15 = getelementptr inbounds nuw i8, ptr %0, i64 8
  %16 = load ptr, ptr %15, align 8
  %17 = tail call fastcc ptr @clean_NOT_intree(ptr noundef %16)
  store ptr %17, ptr %15, align 8
  %18 = icmp eq ptr %17, null
  br i1 %18, label %19, label %34

19:                                               ; preds = %14, %10
  tail call fastcc void @freetree(ptr noundef nonnull %0)
  br label %34

20:                                               ; preds = %6
  %21 = load ptr, ptr %0, align 8
  %22 = tail call fastcc ptr @clean_NOT_intree(ptr noundef %21)
  store ptr %22, ptr %0, align 8
  %23 = getelementptr inbounds nuw i8, ptr %0, i64 8
  %24 = load ptr, ptr %23, align 8
  %25 = tail call fastcc ptr @clean_NOT_intree(ptr noundef %24)
  store ptr %25, ptr %23, align 8
  %26 = load ptr, ptr %0, align 8
  %27 = icmp eq ptr %26, null
  %28 = icmp eq ptr %25, null
  %or.cond = select i1 %27, i1 %28, i1 false
  br i1 %or.cond, label %29, label %30

29:                                               ; preds = %20
  tail call void @pfree(ptr noundef nonnull %0) #7
  br label %34

30:                                               ; preds = %20
  br i1 %27, label %31, label %32

31:                                               ; preds = %30
  tail call void @pfree(ptr noundef nonnull %0) #7
  br label %34

32:                                               ; preds = %30
  br i1 %28, label %33, label %34

33:                                               ; preds = %32
  tail call void @pfree(ptr noundef nonnull %0) #7
  br label %34

34:                                               ; preds = %14, %29, %32, %33, %31, %1, %19, %9
  %.027 = phi ptr [ null, %9 ], [ null, %19 ], [ %0, %1 ], [ null, %29 ], [ %25, %31 ], [ %26, %33 ], [ %0, %32 ], [ %0, %14 ]
  ret ptr %.027
}